; Function Attrs: mustprogress uwtable
define void @_ZN7rocksdb21PersistentCacheHelper18InsertUncompressedERKNS_22PersistentCacheOptionsERKNS_11BlockHandleERKNS_13BlockContentsE(ptr noundef nonnull align 8 dereferenceable(40) %0, ptr noundef nonnull align 8 dereferenceable(16) %1, ptr noundef nonnull readonly align 8 captures(none) dereferenceable(32) %2) local_unnamed_addr #4 align 2 personality ptr @__gxx_personality_v0 {
  %4 = alloca %"class.rocksdb::CacheKey", align 8
  %5 = alloca %"class.rocksdb::Status", align 8
  %6 = alloca %"class.rocksdb::Slice", align 8
  call void @llvm.lifetime.start.p0(i64 16, ptr nonnull %4) #13
  %7 = getelementptr inbounds nuw i8, ptr %0, i64 16
  %8 = tail call { i64, i64 } @_ZN7rocksdb15BlockBasedTable11GetCacheKeyERKNS_18OffsetableCacheKeyERKNS_11BlockHandleE(ptr noundef nonnull align 8 dereferenceable(16) %7, ptr noundef nonnull align 8 dereferenceable(16) %1)
  %9 = extractvalue { i64, i64 } %8, 0
  store i64 %9, ptr %4, align 8
  %10 = getelementptr inbounds nuw i8, ptr %4, i64 8
  %11 = extractvalue { i64, i64 } %8, 1
  store i64 %11, ptr %10, align 8
  call void @llvm.lifetime.start.p0(i64 16, ptr nonnull %5) #13
  %12 = load ptr, ptr %0, align 8, !tbaa !23
  call void @llvm.lifetime.start.p0(i64 16, ptr nonnull %6) #13
  store ptr %4, ptr %6, align 8
  %13 = getelementptr inbounds nuw i8, ptr %6, i64 8
  store i64 16, ptr %13, align 8
  %14 = load ptr, ptr %2, align 8, !tbaa !28
  %15 = getelementptr inbounds nuw i8, ptr %2, i64 8
  %16 = load i64, ptr %15, align 8, !tbaa !31
  %17 = load ptr, ptr %12, align 8, !tbaa !18
  %18 = getelementptr inbounds nuw i8, ptr %17, i64 16
  %19 = load ptr, ptr %18, align 8
  call void %19(ptr dead_on_unwind nonnull writable sret(%"class.rocksdb::Status") align 8 %5, ptr noundef nonnull align 8 dereferenceable(8) %12, ptr noundef nonnull align 8 dereferenceable(16) %6, ptr noundef %14, i64 noundef %16)
  %20 = getelementptr inbounds nuw i8, ptr %5, i64 8
  %21 = load ptr, ptr %20, align 8, !tbaa !26
  %.not.i.i = icmp eq ptr %21, null
  br i1 %.not.i.i, label %_ZN7rocksdb6StatusD2Ev.exit, label %_ZNKSt14default_deleteIA_KcEclIS0_EENSt9enable_ifIXsr14is_convertibleIPA_T_PS1_EE5valueEvE4typeEPS5_.exit.i.i

_ZNKSt14default_deleteIA_KcEclIS0_EENSt9enable_ifIXsr14is_convertibleIPA_T_PS1_EE5valueEvE4typeEPS5_.exit.i.i: ; preds = %3
  call void @_ZdaPv(ptr noundef nonnull %21) #12
  br label %_ZN7rocksdb6StatusD2Ev.exit

_ZN7rocksdb6StatusD2Ev.exit:                      ; preds = %3, %_ZNKSt14default_deleteIA_KcEclIS0_EENSt9enable_ifIXsr14is_convertibleIPA_T_PS1_EE5valueEvE4typeEPS5_.exit.i.i
  call void @llvm.lifetime.end.p0(i64 16, ptr nonnull %6) #13
  call void @llvm.lifetime.end.p0(i64 16, ptr nonnull %5) #13
  call void @llvm.lifetime.end.p0(i64 16, ptr nonnull %4) #13
  ret void
}